ARM GAS  C:\Users\57322\AppData\Local\Temp\ccUZ7iU3.s 			page 1


   1              		.syntax unified
   2              		.cpu cortex-m3
   3              		.fpu softvfp
   4              		.eabi_attribute 20, 1
   5              		.eabi_attribute 21, 1
   6              		.eabi_attribute 23, 3
   7              		.eabi_attribute 24, 1
   8              		.eabi_attribute 25, 1
   9              		.eabi_attribute 26, 1
  10              		.eabi_attribute 30, 1
  11              		.eabi_attribute 34, 1
  12              		.eabi_attribute 18, 4
  13              		.thumb
  14              		.syntax unified
  15              		.file	"main.c"
  16              		.text
  17              	.Ltext0:
  18              		.cfi_sections	.debug_frame
  19              		.section	.text.UART_RX_ISR_Handler,"ax",%progbits
  20              		.align	2
  21              		.global	UART_RX_ISR_Handler
  22              		.thumb
  23              		.thumb_func
  24              		.type	UART_RX_ISR_Handler, %function
  25              	UART_RX_ISR_Handler:
  26              	.LFB68:
  27              		.file 1 "main.c"
   1:main.c        **** #include "project.h" // Incluye los archivos de encabezado generados por PSoC Creator
   2:main.c        **** #include "LiquidCrystal_I2C.h"
   3:main.c        **** #include <cytypes.h>
   4:main.c        **** #include <stdbool.h>
   5:main.c        **** #include <math.h> // Necesario para funciones matem√°ticas como sqrt o pow si las usas para la ramp
   6:main.c        **** #include <string.h> 
   7:main.c        **** #include <stdio.h>
   8:main.c        **** 
   9:main.c        **** //----------------------------------definiendo variables-------------------------------------------
  10:main.c        **** 
  11:main.c        **** #define RX_BUFFER_SIZE 64
  12:main.c        **** #define STEPS_PER_REV       200UL    // Pasos por revoluci√≥n de tu motor (ej. 200 para motor de 1.
  13:main.c        **** #define MICROSTEPS_FACTOR   16UL     // Factor de microstepping (ej. 1 para full step, 16 para 1/16
  14:main.c        ****                                      // Esto debe coincidir con la configuraci√≥n de tu driver de m
  15:main.c        **** #define MM_PER_REV          8.0f     // Mil√≠metros que avanza tu mecanismo por una revoluci√≥n (ej
  16:main.c        ****                                      // Si "distancia" es simplemente un n√∫mero de vueltas o unida
  17:main.c        **** #define PULSE_WIDTH_US      2UL      // Duraci√≥n m√≠nima del pulso STEP en microsegundos (para ase
  18:main.c        **** #define RAMP_SEGMENT_STEPS 400 // N√∫mero de pasos dedicados a UNA fase de rampa (aceleraci√≥n O de
  19:main.c        ****                                // Ajusta este valor:
  20:main.c        ****                                // - Mayor valor: rampa m√°s suave y larga.
  21:main.c        ****                                // - Menor valor: rampa m√°s brusca y corta.
  22:main.c        ****                                // Deber√°s probar cu√°l es el mejor valor para tu motor y aplicaci√
  23:main.c        ****                             #define SERVO_MIN_PULSE_COMPARE_VALUE   10  // Valor para ~1ms de pulso
  24:main.c        **** #define SERVO_MAX_PULSE_COMPARE_VALUE   20  // Valor para ~2ms de pulso (ej. otro extremo de rotaci
  25:main.c        **** #define SERVO_PULSE_RANGE  (SERVO_MAX_PULSE_COMPARE_VALUE - SERVO_MIN_PULSE_COMPARE_VALUE) // Rango
  26:main.c        **** // Punto de PARADA espec√≠fico para un servo de 360 grados (t√≠picamente 1.5ms)
  27:main.c        **** // Ajusta este valor si tu servo de 360 grados no se detiene exactamente con 1500.
  28:main.c        **** #define SERVO_360_STOP_PULSE_COMPARE_VALUE 15
  29:main.c        **** char rxBuffer[RX_BUFFER_SIZE];
  30:main.c        **** 
ARM GAS  C:\Users\57322\AppData\Local\Temp\ccUZ7iU3.s 			page 2


  31:main.c        **** volatile uint8 rxBufferIdx = 0; // √çndice actual del buffer
  32:main.c        **** volatile uint8 newMessageFlag = 0; // Bandera que indica que se ha recibido un mensaje completo
  33:main.c        **** char motorDirection = ' '; // 'L' para izquierda, 'R' para derecha
  34:main.c        **** int motorRPM_parsed = 0;   // Renombrado para evitar conflicto si ya tienes motorRPM
  35:main.c        **** int motorDistance_parsed = 0; 
  36:main.c        **** int servo1Degrees = 0;
  37:main.c        **** int servo2Degrees = 0;
  38:main.c        **** uint32_t Addr = 0x27;
  39:main.c        **** char lcdLineBuffer[17];
  40:main.c        **** 
  41:main.c        **** 
  42:main.c        **** 
  43:main.c        **** //------------------------------funciones para el movimiento del motor-----------------------------
  44:main.c        **** 
  45:main.c        **** void delay_us(uint16 us) { CyDelayUs(us);}
  46:main.c        **** 
  47:main.c        **** uint16 calculate_delay(uint32 current_step_idx, uint32 total_steps, uint16 initial_delay, uint16 fi
  48:main.c        ****     // Si no hay pasos, o si el retardo inicial es igual o menor al final (no hay rampa efectiva)
  49:main.c        ****     if (total_steps == 0 || initial_delay <= final_delay) {
  50:main.c        ****         return final_delay; // Opera a velocidad m√°xima o no hace nada si total_steps es 0
  51:main.c        ****     }
  52:main.c        **** 
  53:main.c        ****     uint32 delay_diff = initial_delay - final_delay;
  54:main.c        ****     uint32 effective_ramp_segment_steps = RAMP_SEGMENT_STEPS;
  55:main.c        **** 
  56:main.c        ****     // Ajusta la cantidad de pasos de la rampa si el movimiento total es muy corto.
  57:main.c        ****     // Esto asegura que la rampa no exceda la mitad del movimiento total (para dejar espacio a la d
  58:main.c        ****     if (total_steps < (2 * RAMP_SEGMENT_STEPS)) {
  59:main.c        ****         effective_ramp_segment_steps = total_steps / 2;
  60:main.c        ****         // Asegurarse de que al menos haya un m√≠nimo de pasos de rampa si el total es muy peque√±o
  61:main.c        ****         if (effective_ramp_segment_steps == 0 && total_steps > 0) {
  62:main.c        ****             effective_ramp_segment_steps = 1; // Al menos 1 paso de rampa si hay movimiento
  63:main.c        ****         }
  64:main.c        ****     }
  65:main.c        ****     
  66:main.c        ****     // Si el movimiento total es tan corto que effective_ramp_segment_steps es 0,
  67:main.c        ****     // o si la rampa no puede ser efectiva (por ejemplo, total_steps < 2),
  68:main.c        ****     // simplemente mueve a la velocidad final.
  69:main.c        ****     if (effective_ramp_segment_steps == 0) {
  70:main.c        ****         return final_delay;
  71:main.c        ****     }
  72:main.c        **** 
  73:main.c        ****     uint32 current_delay;
  74:main.c        **** 
  75:main.c        ****     // --- Fase de Aceleraci√≥n ---
  76:main.c        ****     // Si el paso actual est√° dentro del segmento inicial de rampa
  77:main.c        ****     if (current_step_idx < effective_ramp_segment_steps) {
  78:main.c        ****         // El retardo disminuye linealmente desde initial_delay hasta final_delay
  79:main.c        ****         current_delay = initial_delay - (delay_diff * current_step_idx) / effective_ramp_segment_st
  80:main.c        ****     }
  81:main.c        ****     // --- Fase de Desaceleraci√≥n ---
  82:main.c        ****     // Si el paso actual est√° dentro del segmento final de rampa
  83:main.c        ****     else if (current_step_idx >= (total_steps - effective_ramp_segment_steps)) {
  84:main.c        ****         // Calcula el √≠ndice relativo dentro de la fase de desaceleraci√≥n
  85:main.c        ****         uint32 decel_step_idx = current_step_idx - (total_steps - effective_ramp_segment_steps);
  86:main.c        ****         // El retardo aumenta linealmente desde final_delay hasta initial_delay
  87:main.c        ****         current_delay = final_delay + (delay_diff * decel_step_idx) / effective_ramp_segment_steps;
ARM GAS  C:\Users\57322\AppData\Local\Temp\ccUZ7iU3.s 			page 3


  88:main.c        ****     }
  89:main.c        ****     // --- Fase de Velocidad Constante ---
  90:main.c        ****     // Si el paso actual est√° entre las fases de aceleraci√≥n y desaceleraci√≥n
  91:main.c        ****     else {
  92:main.c        ****         // El motor se mueve a la velocidad m√°xima (retardo m√≠nimo)
  93:main.c        ****         current_delay = final_delay;
  94:main.c        ****     }
  95:main.c        **** 
  96:main.c        ****     // Comprobaciones de seguridad para asegurar que el retardo no se salga de los l√≠mites
  97:main.c        ****     // debido a la aritm√©tica de enteros, especialmente si initial_delay y final_delay est√°n muy 
  98:main.c        ****     if (current_delay > initial_delay) { // No debe ser m√°s lento que el inicio de la rampa
  99:main.c        ****         current_delay = initial_delay;
 100:main.c        ****     }
 101:main.c        ****     if (current_delay < final_delay) { // No debe ser m√°s r√°pido que la velocidad m√°xima
 102:main.c        ****         current_delay = final_delay;
 103:main.c        ****     }
 104:main.c        **** 
 105:main.c        ****     return (uint16)current_delay;
 106:main.c        **** }
 107:main.c        **** 
 108:main.c        **** void step_motor_ramped(uint32 steps_to_move, bool direction, uint16 initial_delay_us, uint16 min_de
 109:main.c        ****     DIR_Write(direction); // Establece la direcci√≥n (1 o 0)
 110:main.c        ****     CyDelayUs(50);        // Peque√±o retardo para que el pin de direcci√≥n se estabilice
 111:main.c        **** 
 112:main.c        ****     for (uint32 i = 0; i < steps_to_move; i++) {
 113:main.c        ****         uint16 current_delay_period_us = calculate_delay(i, steps_to_move, initial_delay_us, min_de
 114:main.c        ****         
 115:main.c        ****         // Asegura que el pulso HIGH dure al menos PULSE_WIDTH_US y que no sea m√°s de la mitad del
 116:main.c        ****         uint16 pulse_on_time = PULSE_WIDTH_US; 
 117:main.c        ****         if (pulse_on_time > (current_delay_period_us / 2)) {
 118:main.c        ****             pulse_on_time = current_delay_period_us / 2; 
 119:main.c        ****         }
 120:main.c        ****         uint16 pulse_off_time = current_delay_period_us - pulse_on_time;
 121:main.c        **** 
 122:main.c        ****         STEP_Write(1); // Pulso HIGH para un paso
 123:main.c        ****         delay_us(pulse_on_time); // Duraci√≥n del pulso HIGH
 124:main.c        ****         STEP_Write(0); // Pulso LOW (finaliza el paso)
 125:main.c        ****         delay_us(pulse_off_time); // Duraci√≥n del LOW (resto del per√≠odo del paso)
 126:main.c        ****     }
 127:main.c        **** }
 128:main.c        **** 
 129:main.c        **** void control_motor(bool direction, uint16 target_rpm, uint16 distance_mm) {
 130:main.c        ****     // 1. Calcular el n√∫mero total de pasos (actuales, incluyendo microstepping) para la distancia
 131:main.c        ****     // total_steps = (distancia_mm * (pasos_por_rev * factor_microstepping)) / mm_por_rev
 132:main.c        ****     uint32 total_steps_for_distance = (uint32)(((float)distance_mm * (STEPS_PER_REV )) / MM_PER_REV
 133:main.c        **** 
 134:main.c        ****     // 2. Calcular el 'min_delay_us' (retardo para la velocidad objetivo en RPM)
 135:main.c        ****     // Pasos por segundo = (RPM * STEPS_PER_REV * MICROSTEPS_FACTOR) / 60
 136:main.c        ****     // Retardo por paso (us) = 1,000,000 / (Pasos por segundo)
 137:main.c        ****     // Retardo por paso (us) = 60,000,000 / (RPM * STEPS_PER_REV * MICROSTEPS_FACTOR)
 138:main.c        ****     uint16 calculated_min_delay_us;
 139:main.c        ****     if (target_rpm == 0) { // Si RPM es 0, no moverse o moverse muy lento
 140:main.c        ****         calculated_min_delay_us = 60000; // Un retardo muy grande (60ms/paso)
 141:main.c        ****     } else {
 142:main.c        ****         // Aseg√∫rate de usar uint32 para la multiplicaci√≥n grande para evitar desbordamiento
 143:main.c        ****         calculated_min_delay_us = (uint16)(60000000UL / ((uint32)target_rpm * STEPS_PER_REV * MICRO
 144:main.c        ****     }
ARM GAS  C:\Users\57322\AppData\Local\Temp\ccUZ7iU3.s 			page 4


 145:main.c        ****     
 146:main.c        ****     // Si el c√°lculo da un retardo muy peque√±o (RPM muy altas), limitarlo para evitar problemas
 147:main.c        ****     if (calculated_min_delay_us < (PULSE_WIDTH_US * 2)) { // M√≠nimo el doble del ancho de pulso
 148:main.c        ****         calculated_min_delay_us = PULSE_WIDTH_US * 2;
 149:main.c        ****     }
 150:main.c        **** 
 151:main.c        ****     // 3. Definir el 'initial_delay_us' (para la rampa de aceleraci√≥n)
 152:main.c        ****     // Normalmente, un retardo mucho mayor que min_delay_us para empezar lento
 153:main.c        ****     uint16 initial_delay_us = calculated_min_delay_us * 5; // Empieza 5 veces m√°s lento
 154:main.c        ****     if (initial_delay_us > 100000) { // Limita el retardo inicial m√°ximo a 100ms
 155:main.c        ****         initial_delay_us = 100000;
 156:main.c        ****     }
 157:main.c        ****     if (initial_delay_us < calculated_min_delay_us) { // Asegura que initial sea mayor o igual que 
 158:main.c        ****         initial_delay_us = calculated_min_delay_us;
 159:main.c        ****     }
 160:main.c        **** 
 161:main.c        ****     // Llamar a la funci√≥n de pasos con rampa usando los valores calculados
 162:main.c        ****     step_motor_ramped(total_steps_for_distance, direction, initial_delay_us, calculated_min_delay_u
 163:main.c        **** }
 164:main.c        **** //-------------------------------------Interrupciones----------------------------------------------
 165:main.c        **** CY_ISR(UART_RX_ISR_Handler) // El nombre de la funci√≥n C que maneja la interrupci√≥n
 166:main.c        **** {
  28              		.loc 1 166 0
  29              		.cfi_startproc
  30              		@ args = 0, pretend = 0, frame = 0
  31              		@ frame_needed = 0, uses_anonymous_args = 0
  32 0000 08B5     		push	{r3, lr}
  33              		.cfi_def_cfa_offset 8
  34              		.cfi_offset 3, -8
  35              		.cfi_offset 14, -4
 167:main.c        ****      uint32 readStatus = UART_ReadRxStatus(); // Lee el registro de estado para limpiar la interrup
  36              		.loc 1 167 0
  37 0002 FFF7FEFF 		bl	UART_ReadRxStatus
  38              	.LVL0:
 168:main.c        **** 
 169:main.c        ****     if (readStatus & UART_RX_STS_FIFO_NOTEMPTY) // Si hay datos en el FIFO de RX
  39              		.loc 1 169 0
  40 0006 10F0200F 		tst	r0, #32
  41 000a 1AD0     		beq	.L1
  42              	.LBB2:
 170:main.c        ****     {
 171:main.c        ****         // *** CAMBIO AQU√ç: Usar la funci√≥n API para leer el car√°cter recibido ***
 172:main.c        ****         char receivedChar = UART_ReadRxData(); // Lee el byte recibido
  43              		.loc 1 172 0
  44 000c FFF7FEFF 		bl	UART_ReadRxData
  45              	.LVL1:
 173:main.c        **** 
 174:main.c        ****         if (receivedChar == '\n') // Si el byte es un salto de l√≠nea (terminador de mensaje)
  46              		.loc 1 174 0
  47 0010 0A28     		cmp	r0, #10
  48 0012 09D1     		bne	.L3
 175:main.c        ****         {
 176:main.c        ****             rxBuffer[rxBufferIdx] = '\0'; // Null-termina la cadena en el buffer
  49              		.loc 1 176 0
  50 0014 0B4B     		ldr	r3, .L5
  51 0016 1A78     		ldrb	r2, [r3]	@ zero_extendqisi2
  52 0018 D2B2     		uxtb	r2, r2
ARM GAS  C:\Users\57322\AppData\Local\Temp\ccUZ7iU3.s 			page 5


  53 001a 0021     		movs	r1, #0
  54 001c 0A48     		ldr	r0, .L5+4
  55              	.LVL2:
  56 001e 8154     		strb	r1, [r0, r2]
 177:main.c        ****             newMessageFlag = 1;         // Marca la bandera para que el bucle principal procese
  57              		.loc 1 177 0
  58 0020 0122     		movs	r2, #1
  59 0022 5A70     		strb	r2, [r3, #1]
 178:main.c        ****             rxBufferIdx = 0;            // Reinicia el √≠ndice del buffer para el pr√≥ximo mensaje
  60              		.loc 1 178 0
  61 0024 1970     		strb	r1, [r3]
  62 0026 08BD     		pop	{r3, pc}
  63              	.LVL3:
  64              	.L3:
 179:main.c        ****         }
 180:main.c        ****         else if (rxBufferIdx < (RX_BUFFER_SIZE - 1)) // Si no es salto de l√≠nea y hay espacio en e
  65              		.loc 1 180 0
  66 0028 064B     		ldr	r3, .L5
  67 002a 1B78     		ldrb	r3, [r3]	@ zero_extendqisi2
  68 002c DBB2     		uxtb	r3, r3
  69 002e 3E2B     		cmp	r3, #62
  70 0030 07D8     		bhi	.L1
 181:main.c        ****         {
 182:main.c        ****             rxBuffer[rxBufferIdx++] = receivedChar; // Almacena el byte y avanza el √≠ndice
  71              		.loc 1 182 0
  72 0032 0449     		ldr	r1, .L5
  73 0034 0B78     		ldrb	r3, [r1]	@ zero_extendqisi2
  74 0036 DBB2     		uxtb	r3, r3
  75 0038 5A1C     		adds	r2, r3, #1
  76 003a D2B2     		uxtb	r2, r2
  77 003c 0A70     		strb	r2, [r1]
  78 003e 024A     		ldr	r2, .L5+4
  79 0040 D054     		strb	r0, [r2, r3]
  80              	.LVL4:
  81              	.L1:
  82 0042 08BD     		pop	{r3, pc}
  83              	.L6:
  84              		.align	2
  85              	.L5:
  86 0044 00000000 		.word	.LANCHOR0
  87 0048 00000000 		.word	rxBuffer
  88              	.LBE2:
  89              		.cfi_endproc
  90              	.LFE68:
  91              		.size	UART_RX_ISR_Handler, .-UART_RX_ISR_Handler
  92              		.section	.text.delay_us,"ax",%progbits
  93              		.align	2
  94              		.global	delay_us
  95              		.thumb
  96              		.thumb_func
  97              		.type	delay_us, %function
  98              	delay_us:
  99              	.LFB64:
  45:main.c        **** 
 100              		.loc 1 45 0
 101              		.cfi_startproc
 102              		@ args = 0, pretend = 0, frame = 0
ARM GAS  C:\Users\57322\AppData\Local\Temp\ccUZ7iU3.s 			page 6


 103              		@ frame_needed = 0, uses_anonymous_args = 0
 104              	.LVL5:
 105 0000 08B5     		push	{r3, lr}
 106              		.cfi_def_cfa_offset 8
 107              		.cfi_offset 3, -8
 108              		.cfi_offset 14, -4
  45:main.c        **** 
 109              		.loc 1 45 0
 110 0002 FFF7FEFF 		bl	CyDelayUs
 111              	.LVL6:
 112 0006 08BD     		pop	{r3, pc}
 113              		.cfi_endproc
 114              	.LFE64:
 115              		.size	delay_us, .-delay_us
 116              		.section	.text.calculate_delay,"ax",%progbits
 117              		.align	2
 118              		.global	calculate_delay
 119              		.thumb
 120              		.thumb_func
 121              		.type	calculate_delay, %function
 122              	calculate_delay:
 123              	.LFB65:
  47:main.c        ****     // Si no hay pasos, o si el retardo inicial es igual o menor al final (no hay rampa efectiva)
 124              		.loc 1 47 0
 125              		.cfi_startproc
 126              		@ args = 0, pretend = 0, frame = 0
 127              		@ frame_needed = 0, uses_anonymous_args = 0
 128              		@ link register save eliminated.
 129              	.LVL7:
  49:main.c        ****         return final_delay; // Opera a velocidad m√°xima o no hace nada si total_steps es 0
 130              		.loc 1 49 0
 131 0000 71B3     		cbz	r1, .L17
  47:main.c        ****     // Si no hay pasos, o si el retardo inicial es igual o menor al final (no hay rampa efectiva)
 132              		.loc 1 47 0 discriminator 1
 133 0002 70B4     		push	{r4, r5, r6}
 134              		.cfi_def_cfa_offset 12
 135              		.cfi_offset 4, -12
 136              		.cfi_offset 5, -8
 137              		.cfi_offset 6, -4
 138 0004 0C46     		mov	r4, r1
  49:main.c        ****         return final_delay; // Opera a velocidad m√°xima o no hace nada si total_steps es 0
 139              		.loc 1 49 0 discriminator 1
 140 0006 9A42     		cmp	r2, r3
 141 0008 2CD9     		bls	.L18
  53:main.c        ****     uint32 effective_ramp_segment_steps = RAMP_SEGMENT_STEPS;
 142              		.loc 1 53 0
 143 000a D11A     		subs	r1, r2, r3
 144              	.LVL8:
  58:main.c        ****         effective_ramp_segment_steps = total_steps / 2;
 145              		.loc 1 58 0
 146 000c B4F5487F 		cmp	r4, #800
 147 0010 03D2     		bcs	.L19
 148              	.LVL9:
  61:main.c        ****             effective_ramp_segment_steps = 1; // Al menos 1 paso de rampa si hay movimiento
 149              		.loc 1 61 0
 150 0012 6508     		lsrs	r5, r4, #1
 151              	.LVL10:
ARM GAS  C:\Users\57322\AppData\Local\Temp\ccUZ7iU3.s 			page 7


 152 0014 05D1     		bne	.L11
  61:main.c        ****             effective_ramp_segment_steps = 1; // Al menos 1 paso de rampa si hay movimiento
 153              		.loc 1 61 0 is_stmt 0 discriminator 1
 154 0016 1CB9     		cbnz	r4, .L20
 155 0018 03E0     		b	.L11
 156              	.LVL11:
 157              	.L19:
  54:main.c        **** 
 158              		.loc 1 54 0 is_stmt 1
 159 001a 4FF4C875 		mov	r5, #400
 160 001e 00E0     		b	.L11
 161              	.LVL12:
 162              	.L20:
  62:main.c        ****         }
 163              		.loc 1 62 0
 164 0020 0125     		movs	r5, #1
 165              	.LVL13:
 166              	.L11:
  69:main.c        ****         return final_delay;
 167              		.loc 1 69 0
 168 0022 0DB3     		cbz	r5, .L21
  77:main.c        ****         // El retardo disminuye linealmente desde initial_delay hasta final_delay
 169              		.loc 1 77 0
 170 0024 8542     		cmp	r5, r0
 171 0026 05D9     		bls	.L12
  79:main.c        ****     }
 172              		.loc 1 79 0
 173 0028 00FB01F0 		mul	r0, r0, r1
 174              	.LVL14:
 175 002c B0FBF5F0 		udiv	r0, r0, r5
 176 0030 101A     		subs	r0, r2, r0
 177              	.LVL15:
 178 0032 0BE0     		b	.L13
 179              	.LVL16:
 180              	.L12:
  83:main.c        ****         // Calcula el √≠ndice relativo dentro de la fase de desaceleraci√≥n
 181              		.loc 1 83 0
 182 0034 661B     		subs	r6, r4, r5
 183 0036 B042     		cmp	r0, r6
 184 0038 07D3     		bcc	.L14
 185              	.LBB3:
  85:main.c        ****         // El retardo aumenta linealmente desde final_delay hasta initial_delay
 186              		.loc 1 85 0
 187 003a 2C1B     		subs	r4, r5, r4
 188              	.LVL17:
 189 003c 0444     		add	r4, r4, r0
 190              	.LVL18:
  87:main.c        ****     }
 191              		.loc 1 87 0
 192 003e 04FB01F1 		mul	r1, r4, r1
 193              	.LVL19:
 194 0042 B1FBF5F0 		udiv	r0, r1, r5
 195              	.LVL20:
 196 0046 1844     		add	r0, r0, r3
 197              	.LVL21:
 198              	.LBE3:
 199 0048 00E0     		b	.L13
ARM GAS  C:\Users\57322\AppData\Local\Temp\ccUZ7iU3.s 			page 8


 200              	.LVL22:
 201              	.L14:
  93:main.c        ****     }
 202              		.loc 1 93 0
 203 004a 1846     		mov	r0, r3
 204              	.LVL23:
 205              	.L13:
  98:main.c        ****         current_delay = initial_delay;
 206              		.loc 1 98 0
 207 004c 1146     		mov	r1, r2
 208 004e 9042     		cmp	r0, r2
 209 0050 00D8     		bhi	.L15
 210              	.LVL24:
 211 0052 0146     		mov	r1, r0
 212              	.LVL25:
 213              	.L15:
 101:main.c        ****         current_delay = final_delay;
 214              		.loc 1 101 0
 215 0054 1846     		mov	r0, r3
 216 0056 9942     		cmp	r1, r3
 217 0058 00D3     		bcc	.L16
 218              	.LVL26:
 219 005a 0846     		mov	r0, r1
 220              	.LVL27:
 221              	.L16:
 105:main.c        **** }
 222              		.loc 1 105 0
 223 005c 80B2     		uxth	r0, r0
 224              	.LVL28:
 225 005e 04E0     		b	.L10
 226              	.LVL29:
 227              	.L17:
 228              		.cfi_def_cfa_offset 0
 229              		.cfi_restore 4
 230              		.cfi_restore 5
 231              		.cfi_restore 6
  50:main.c        ****     }
 232              		.loc 1 50 0
 233 0060 1846     		mov	r0, r3
 234              	.LVL30:
 106:main.c        **** 
 235              		.loc 1 106 0
 236 0062 7047     		bx	lr
 237              	.LVL31:
 238              	.L18:
 239              		.cfi_def_cfa_offset 12
 240              		.cfi_offset 4, -12
 241              		.cfi_offset 5, -8
 242              		.cfi_offset 6, -4
  50:main.c        ****     }
 243              		.loc 1 50 0
 244 0064 1846     		mov	r0, r3
 245              	.LVL32:
 246 0066 00E0     		b	.L10
 247              	.LVL33:
 248              	.L21:
  70:main.c        ****     }
ARM GAS  C:\Users\57322\AppData\Local\Temp\ccUZ7iU3.s 			page 9


 249              		.loc 1 70 0
 250 0068 1846     		mov	r0, r3
 251              	.LVL34:
 252              	.L10:
 106:main.c        **** 
 253              		.loc 1 106 0
 254 006a 70BC     		pop	{r4, r5, r6}
 255              		.cfi_restore 6
 256              		.cfi_restore 5
 257              		.cfi_restore 4
 258              		.cfi_def_cfa_offset 0
 259 006c 7047     		bx	lr
 260              		.cfi_endproc
 261              	.LFE65:
 262              		.size	calculate_delay, .-calculate_delay
 263 006e 00BF     		.section	.text.step_motor_ramped,"ax",%progbits
 264              		.align	2
 265              		.global	step_motor_ramped
 266              		.thumb
 267              		.thumb_func
 268              		.type	step_motor_ramped, %function
 269              	step_motor_ramped:
 270              	.LFB66:
 108:main.c        ****     DIR_Write(direction); // Establece la direcci√≥n (1 o 0)
 271              		.loc 1 108 0
 272              		.cfi_startproc
 273              		@ args = 0, pretend = 0, frame = 0
 274              		@ frame_needed = 0, uses_anonymous_args = 0
 275              	.LVL35:
 276 0000 2DE9F843 		push	{r3, r4, r5, r6, r7, r8, r9, lr}
 277              		.cfi_def_cfa_offset 32
 278              		.cfi_offset 3, -32
 279              		.cfi_offset 4, -28
 280              		.cfi_offset 5, -24
 281              		.cfi_offset 6, -20
 282              		.cfi_offset 7, -16
 283              		.cfi_offset 8, -12
 284              		.cfi_offset 9, -8
 285              		.cfi_offset 14, -4
 286 0004 0746     		mov	r7, r0
 287 0006 9146     		mov	r9, r2
 288 0008 9846     		mov	r8, r3
 109:main.c        ****     CyDelayUs(50);        // Peque√±o retardo para que el pin de direcci√≥n se estabilice
 289              		.loc 1 109 0
 290 000a 0846     		mov	r0, r1
 291              	.LVL36:
 292 000c FFF7FEFF 		bl	DIR_Write
 293              	.LVL37:
 110:main.c        **** 
 294              		.loc 1 110 0
 295 0010 3220     		movs	r0, #50
 296 0012 FFF7FEFF 		bl	CyDelayUs
 297              	.LVL38:
 298              	.LBB4:
 112:main.c        ****         uint16 current_delay_period_us = calculate_delay(i, steps_to_move, initial_delay_us, min_de
 299              		.loc 1 112 0
 300 0016 0025     		movs	r5, #0
ARM GAS  C:\Users\57322\AppData\Local\Temp\ccUZ7iU3.s 			page 10


 301 0018 1AE0     		b	.L24
 302              	.LVL39:
 303              	.L26:
 304              	.LBB5:
 113:main.c        ****         
 305              		.loc 1 113 0
 306 001a 4346     		mov	r3, r8
 307 001c 4A46     		mov	r2, r9
 308 001e 3946     		mov	r1, r7
 309 0020 2846     		mov	r0, r5
 310 0022 FFF7FEFF 		bl	calculate_delay
 311              	.LVL40:
 117:main.c        ****             pulse_on_time = current_delay_period_us / 2; 
 312              		.loc 1 117 0
 313 0026 0328     		cmp	r0, #3
 314 0028 02D8     		bhi	.L27
 118:main.c        ****         }
 315              		.loc 1 118 0
 316 002a C0F34F06 		ubfx	r6, r0, #1, #16
 317              	.LVL41:
 318 002e 00E0     		b	.L25
 319              	.LVL42:
 320              	.L27:
 116:main.c        ****         if (pulse_on_time > (current_delay_period_us / 2)) {
 321              		.loc 1 116 0
 322 0030 0226     		movs	r6, #2
 323              	.LVL43:
 324              	.L25:
 120:main.c        **** 
 325              		.loc 1 120 0 discriminator 2
 326 0032 801B     		subs	r0, r0, r6
 327              	.LVL44:
 328 0034 84B2     		uxth	r4, r0
 329              	.LVL45:
 122:main.c        ****         delay_us(pulse_on_time); // Duraci√≥n del pulso HIGH
 330              		.loc 1 122 0 discriminator 2
 331 0036 0120     		movs	r0, #1
 332 0038 FFF7FEFF 		bl	STEP_Write
 333              	.LVL46:
 123:main.c        ****         STEP_Write(0); // Pulso LOW (finaliza el paso)
 334              		.loc 1 123 0 discriminator 2
 335 003c 3046     		mov	r0, r6
 336 003e FFF7FEFF 		bl	delay_us
 337              	.LVL47:
 124:main.c        ****         delay_us(pulse_off_time); // Duraci√≥n del LOW (resto del per√≠odo del paso)
 338              		.loc 1 124 0 discriminator 2
 339 0042 0020     		movs	r0, #0
 340 0044 FFF7FEFF 		bl	STEP_Write
 341              	.LVL48:
 125:main.c        ****     }
 342              		.loc 1 125 0 discriminator 2
 343 0048 2046     		mov	r0, r4
 344 004a FFF7FEFF 		bl	delay_us
 345              	.LVL49:
 346              	.LBE5:
 112:main.c        ****         uint16 current_delay_period_us = calculate_delay(i, steps_to_move, initial_delay_us, min_de
 347              		.loc 1 112 0 discriminator 2
ARM GAS  C:\Users\57322\AppData\Local\Temp\ccUZ7iU3.s 			page 11


 348 004e 0135     		adds	r5, r5, #1
 349              	.LVL50:
 350              	.L24:
 112:main.c        ****         uint16 current_delay_period_us = calculate_delay(i, steps_to_move, initial_delay_us, min_de
 351              		.loc 1 112 0 is_stmt 0 discriminator 1
 352 0050 BD42     		cmp	r5, r7
 353 0052 E2D3     		bcc	.L26
 354              	.LBE4:
 127:main.c        **** 
 355              		.loc 1 127 0 is_stmt 1
 356 0054 BDE8F883 		pop	{r3, r4, r5, r6, r7, r8, r9, pc}
 357              		.cfi_endproc
 358              	.LFE66:
 359              		.size	step_motor_ramped, .-step_motor_ramped
 360              		.global	__aeabi_ui2f
 361              		.global	__aeabi_fmul
 362              		.global	__aeabi_f2uiz
 363              		.section	.text.control_motor,"ax",%progbits
 364              		.align	2
 365              		.global	control_motor
 366              		.thumb
 367              		.thumb_func
 368              		.type	control_motor, %function
 369              	control_motor:
 370              	.LFB67:
 129:main.c        ****     // 1. Calcular el n√∫mero total de pasos (actuales, incluyendo microstepping) para la distancia
 371              		.loc 1 129 0
 372              		.cfi_startproc
 373              		@ args = 0, pretend = 0, frame = 0
 374              		@ frame_needed = 0, uses_anonymous_args = 0
 375              	.LVL51:
 376 0000 38B5     		push	{r3, r4, r5, lr}
 377              		.cfi_def_cfa_offset 16
 378              		.cfi_offset 3, -16
 379              		.cfi_offset 4, -12
 380              		.cfi_offset 5, -8
 381              		.cfi_offset 14, -4
 382 0002 0546     		mov	r5, r0
 383 0004 0C46     		mov	r4, r1
 132:main.c        **** 
 384              		.loc 1 132 0
 385 0006 1046     		mov	r0, r2
 386              	.LVL52:
 387 0008 FFF7FEFF 		bl	__aeabi_ui2f
 388              	.LVL53:
 389 000c 1049     		ldr	r1, .L37
 390 000e FFF7FEFF 		bl	__aeabi_fmul
 391              	.LVL54:
 392 0012 4FF07851 		mov	r1, #1040187392
 393 0016 FFF7FEFF 		bl	__aeabi_fmul
 394              	.LVL55:
 395 001a FFF7FEFF 		bl	__aeabi_f2uiz
 396              	.LVL56:
 139:main.c        ****         calculated_min_delay_us = 60000; // Un retardo muy grande (60ms/paso)
 397              		.loc 1 139 0
 398 001e 44B1     		cbz	r4, .L33
 143:main.c        ****     }
ARM GAS  C:\Users\57322\AppData\Local\Temp\ccUZ7iU3.s 			page 12


 399              		.loc 1 143 0
 400 0020 4FF44863 		mov	r3, #3200
 401 0024 03FB04F3 		mul	r3, r3, r4
 402 0028 0A4A     		ldr	r2, .L37+4
 403 002a B2FBF3F3 		udiv	r3, r2, r3
 404 002e 9BB2     		uxth	r3, r3
 405              	.LVL57:
 406 0030 01E0     		b	.L30
 407              	.LVL58:
 408              	.L33:
 140:main.c        ****     } else {
 409              		.loc 1 140 0
 410 0032 4EF66023 		movw	r3, #60000
 411              	.L30:
 412              	.LVL59:
 147:main.c        ****         calculated_min_delay_us = PULSE_WIDTH_US * 2;
 413              		.loc 1 147 0
 414 0036 032B     		cmp	r3, #3
 415 0038 00D8     		bhi	.L31
 148:main.c        ****     }
 416              		.loc 1 148 0
 417 003a 0423     		movs	r3, #4
 418              	.LVL60:
 419              	.L31:
 153:main.c        ****     if (initial_delay_us > 100000) { // Limita el retardo inicial m√°ximo a 100ms
 420              		.loc 1 153 0
 421 003c 03EB8302 		add	r2, r3, r3, lsl #2
 422 0040 92B2     		uxth	r2, r2
 423              	.LVL61:
 157:main.c        ****         initial_delay_us = calculated_min_delay_us;
 424              		.loc 1 157 0
 425 0042 9342     		cmp	r3, r2
 426 0044 00D9     		bls	.L32
 158:main.c        ****     }
 427              		.loc 1 158 0
 428 0046 1A46     		mov	r2, r3
 429              	.LVL62:
 430              	.L32:
 162:main.c        **** }
 431              		.loc 1 162 0
 432 0048 2946     		mov	r1, r5
 433 004a FFF7FEFF 		bl	step_motor_ramped
 434              	.LVL63:
 435 004e 38BD     		pop	{r3, r4, r5, pc}
 436              	.L38:
 437              		.align	2
 438              	.L37:
 439 0050 00004843 		.word	1128792064
 440 0054 00879303 		.word	60000000
 441              		.cfi_endproc
 442              	.LFE67:
 443              		.size	control_motor, .-control_motor
 444              		.section	.text.printLcd,"ax",%progbits
 445              		.align	2
 446              		.global	printLcd
 447              		.thumb
 448              		.thumb_func
ARM GAS  C:\Users\57322\AppData\Local\Temp\ccUZ7iU3.s 			page 13


 449              		.type	printLcd, %function
 450              	printLcd:
 451              	.LFB69:
 183:main.c        ****         }
 184:main.c        ****     }
 185:main.c        **** }
 186:main.c        **** //----------------------------------------------funcion LCD----------------------------------------
 187:main.c        **** void printLcd(int line,int col, const char* message){
 452              		.loc 1 187 0
 453              		.cfi_startproc
 454              		@ args = 0, pretend = 0, frame = 24
 455              		@ frame_needed = 0, uses_anonymous_args = 0
 456              	.LVL64:
 457 0000 10B5     		push	{r4, lr}
 458              		.cfi_def_cfa_offset 8
 459              		.cfi_offset 4, -8
 460              		.cfi_offset 14, -4
 461 0002 86B0     		sub	sp, sp, #24
 462              		.cfi_def_cfa_offset 32
 463 0004 1446     		mov	r4, r2
 188:main.c        ****     setCursor(col,line);
 464              		.loc 1 188 0
 465 0006 CBB2     		uxtb	r3, r1
 466 0008 C1B2     		uxtb	r1, r0
 467              	.LVL65:
 468 000a 1846     		mov	r0, r3
 469              	.LVL66:
 470 000c FFF7FEFF 		bl	setCursor
 471              	.LVL67:
 189:main.c        ****     char displayBuffer[17];
 190:main.c        ****     int len = 0;
 472              		.loc 1 190 0
 473 0010 0023     		movs	r3, #0
 191:main.c        ****     while (message[len] != '\0' && len < 16) {
 474              		.loc 1 191 0
 475 0012 04E0     		b	.L40
 476              	.LVL68:
 477              	.L42:
 192:main.c        ****         displayBuffer[len] = message[len];
 478              		.loc 1 192 0
 479 0014 06A9     		add	r1, sp, #24
 480 0016 1944     		add	r1, r1, r3
 481 0018 01F8142C 		strb	r2, [r1, #-20]
 193:main.c        ****         len++;
 482              		.loc 1 193 0
 483 001c 0133     		adds	r3, r3, #1
 484              	.LVL69:
 485              	.L40:
 191:main.c        ****     while (message[len] != '\0' && len < 16) {
 486              		.loc 1 191 0
 487 001e E25C     		ldrb	r2, [r4, r3]	@ zero_extendqisi2
 488 0020 42B1     		cbz	r2, .L41
 191:main.c        ****     while (message[len] != '\0' && len < 16) {
 489              		.loc 1 191 0 is_stmt 0 discriminator 1
 490 0022 0F2B     		cmp	r3, #15
 491 0024 F6DD     		ble	.L42
 492 0026 05E0     		b	.L41
ARM GAS  C:\Users\57322\AppData\Local\Temp\ccUZ7iU3.s 			page 14


 493              	.LVL70:
 494              	.L43:
 495              	.LBB6:
 194:main.c        ****     }
 195:main.c        ****     for (int i = len; i < 16; i++) { displayBuffer[i] = ' ';}
 496              		.loc 1 195 0 is_stmt 1 discriminator 3
 497 0028 06AA     		add	r2, sp, #24
 498 002a 1A44     		add	r2, r2, r3
 499 002c 2021     		movs	r1, #32
 500 002e 02F8141C 		strb	r1, [r2, #-20]
 501 0032 0133     		adds	r3, r3, #1
 502              	.LVL71:
 503              	.L41:
 504              		.loc 1 195 0 is_stmt 0 discriminator 1
 505 0034 0F2B     		cmp	r3, #15
 506 0036 F7DD     		ble	.L43
 507              	.LBE6:
 196:main.c        ****     displayBuffer[16] = '\0'; 
 508              		.loc 1 196 0 is_stmt 1
 509 0038 0023     		movs	r3, #0
 510              	.LVL72:
 511 003a 8DF81430 		strb	r3, [sp, #20]
 197:main.c        ****     LCD_print(displayBuffer);  
 512              		.loc 1 197 0
 513 003e 01A8     		add	r0, sp, #4
 514 0040 FFF7FEFF 		bl	LCD_print
 515              	.LVL73:
 198:main.c        **** }
 516              		.loc 1 198 0
 517 0044 06B0     		add	sp, sp, #24
 518              		.cfi_def_cfa_offset 8
 519              		@ sp needed
 520 0046 10BD     		pop	{r4, pc}
 521              		.cfi_endproc
 522              	.LFE69:
 523              		.size	printLcd, .-printLcd
 524              		.section	.text.map_angle_to_compare_value,"ax",%progbits
 525              		.align	2
 526              		.global	map_angle_to_compare_value
 527              		.thumb
 528              		.thumb_func
 529              		.type	map_angle_to_compare_value, %function
 530              	map_angle_to_compare_value:
 531              	.LFB70:
 199:main.c        **** //--------------------------control servo motor------------------------------//
 200:main.c        **** uint16 map_angle_to_compare_value(uint16 angle_input) {
 532              		.loc 1 200 0
 533              		.cfi_startproc
 534              		@ args = 0, pretend = 0, frame = 0
 535              		@ frame_needed = 0, uses_anonymous_args = 0
 536              		@ link register save eliminated.
 537              	.LVL74:
 201:main.c        ****     // Asegurarse de que la entrada est√© dentro del rango 0-180
 202:main.c        ****     if (angle_input > 180) angle_input = 180;
 538              		.loc 1 202 0
 539 0000 B428     		cmp	r0, #180
 540 0002 00D9     		bls	.L46
ARM GAS  C:\Users\57322\AppData\Local\Temp\ccUZ7iU3.s 			page 15


 541 0004 B420     		movs	r0, #180
 542              	.LVL75:
 543              	.L46:
 203:main.c        ****     // (uint16 es sin signo, no puede ser < 0)
 204:main.c        **** 
 205:main.c        ****     // Mapeo lineal: min_pulso + (input * (rango_pulso / 180))
 206:main.c        ****     // Usamos uint32 para la multiplicaci√≥n intermedia para evitar desbordamientos
 207:main.c        ****     uint32 compare_value = (uint32)SERVO_MIN_PULSE_COMPARE_VALUE +
 208:main.c        ****                            ((uint32)angle_input * SERVO_PULSE_RANGE) / 180;
 544              		.loc 1 208 0
 545 0006 00EB8000 		add	r0, r0, r0, lsl #2
 546              	.LVL76:
 547 000a 4300     		lsls	r3, r0, #1
 548 000c 9B08     		lsrs	r3, r3, #2
 549 000e 0648     		ldr	r0, .L52
 550 0010 A0FB0330 		umull	r3, r0, r0, r3
 551 0014 8008     		lsrs	r0, r0, #2
 207:main.c        ****                            ((uint32)angle_input * SERVO_PULSE_RANGE) / 180;
 552              		.loc 1 207 0
 553 0016 0A30     		adds	r0, r0, #10
 554              	.LVL77:
 209:main.c        ****     
 210:main.c        ****     // Comprobaciones de seguridad adicionales
 211:main.c        ****     if (compare_value > SERVO_MAX_PULSE_COMPARE_VALUE) compare_value = SERVO_MAX_PULSE_COMPARE_VALU
 555              		.loc 1 211 0
 556 0018 1428     		cmp	r0, #20
 557 001a 00D9     		bls	.L47
 558 001c 1420     		movs	r0, #20
 559              	.LVL78:
 560              	.L47:
 212:main.c        ****     if (compare_value < SERVO_MIN_PULSE_COMPARE_VALUE) compare_value = SERVO_MIN_PULSE_COMPARE_VALU
 561              		.loc 1 212 0
 562 001e 0928     		cmp	r0, #9
 563 0020 00D8     		bhi	.L48
 564 0022 0A20     		movs	r0, #10
 565              	.LVL79:
 566              	.L48:
 213:main.c        **** 
 214:main.c        ****     return (uint16)compare_value;
 215:main.c        **** }
 567              		.loc 1 215 0
 568 0024 80B2     		uxth	r0, r0
 569              	.LVL80:
 570 0026 7047     		bx	lr
 571              	.L53:
 572              		.align	2
 573              	.L52:
 574 0028 176CC116 		.word	381774871
 575              		.cfi_endproc
 576              	.LFE70:
 577              		.size	map_angle_to_compare_value, .-map_angle_to_compare_value
 578              		.section	.text.set_servo_angle,"ax",%progbits
 579              		.align	2
 580              		.global	set_servo_angle
 581              		.thumb
 582              		.thumb_func
 583              		.type	set_servo_angle, %function
ARM GAS  C:\Users\57322\AppData\Local\Temp\ccUZ7iU3.s 			page 16


 584              	set_servo_angle:
 585              	.LFB71:
 216:main.c        **** // --- Funci√≥n para establecer el √°ngulo de un servomotor ---
 217:main.c        **** // servo_id: 1 para Servo1, 2 para Servo2
 218:main.c        **** // angle: el valor deseado en grados (0-180) enviado desde el GUI
 219:main.c        **** void set_servo_angle(uint8 servo_id, uint16 angle) {
 586              		.loc 1 219 0
 587              		.cfi_startproc
 588              		@ args = 0, pretend = 0, frame = 0
 589              		@ frame_needed = 0, uses_anonymous_args = 0
 590              	.LVL81:
 591 0000 08B5     		push	{r3, lr}
 592              		.cfi_def_cfa_offset 8
 593              		.cfi_offset 3, -8
 594              		.cfi_offset 14, -4
 220:main.c        ****     uint16 compare_val;
 221:main.c        **** 
 222:main.c        ****     if (servo_id == 1) {
 595              		.loc 1 222 0
 596 0002 0128     		cmp	r0, #1
 597 0004 05D1     		bne	.L55
 223:main.c        ****         // --- Servo Est√°ndar (0-180 grados) ---
 224:main.c        ****         // Aqu√≠ 'angle' se interpreta como la posici√≥n en grados.
 225:main.c        ****         compare_val = map_angle_to_compare_value(angle);
 598              		.loc 1 225 0
 599 0006 0846     		mov	r0, r1
 600              	.LVL82:
 601 0008 FFF7FEFF 		bl	map_angle_to_compare_value
 602              	.LVL83:
 226:main.c        ****         PWM_Servo1_WriteCompare(compare_val); // API generada por PSoC Creator
 603              		.loc 1 226 0
 604 000c FFF7FEFF 		bl	PWM_Servo1_WriteCompare
 605              	.LVL84:
 606 0010 08BD     		pop	{r3, pc}
 607              	.LVL85:
 608              	.L55:
 227:main.c        ****         
 228:main.c        ****         // Opcional: Debug por UART
 229:main.c        ****         // UART_PutString("Servo 1 a: ");
 230:main.c        ****         // char temp[5]; sprintf(temp, "%d\r\n", angle); UART_PutString(temp);
 231:main.c        ****         
 232:main.c        ****     } else if (servo_id == 2) {
 609              		.loc 1 232 0
 610 0012 0228     		cmp	r0, #2
 611 0014 04D1     		bne	.L54
 233:main.c        ****         // --- Servo de 360 Grados (Rotaci√≥n Continua) ---
 234:main.c        ****         // Aqu√≠ 'angle' se interpreta como un valor de control de velocidad/direcci√≥n.
 235:main.c        ****         // Ej: angle=0  -> M√°xima velocidad en un sentido.
 236:main.c        ****         //     angle=90 -> Detenido (aproximadamente, ajusta con SERVO_360_STOP_PULSE_COMPARE_VALUE
 237:main.c        ****         //     angle=180-> M√°xima velocidad en el sentido opuesto.
 238:main.c        ****         
 239:main.c        ****         // Mapeo directo de 0-180 a los valores min/max de pulso del servo
 240:main.c        ****         compare_val = map_angle_to_compare_value(angle);
 612              		.loc 1 240 0
 613 0016 0846     		mov	r0, r1
 614              	.LVL86:
 615 0018 FFF7FEFF 		bl	map_angle_to_compare_value
ARM GAS  C:\Users\57322\AppData\Local\Temp\ccUZ7iU3.s 			page 17


 616              	.LVL87:
 241:main.c        ****         PWM_Servo2_WriteCompare(compare_val); // API generada por PSoC Creator
 617              		.loc 1 241 0
 618 001c FFF7FEFF 		bl	PWM_Servo2_WriteCompare
 619              	.LVL88:
 620              	.L54:
 621 0020 08BD     		pop	{r3, pc}
 622              		.cfi_endproc
 623              	.LFE71:
 624              		.size	set_servo_angle, .-set_servo_angle
 625 0022 00BF     		.section	.text.processMessage,"ax",%progbits
 626              		.align	2
 627              		.global	processMessage
 628              		.thumb
 629              		.thumb_func
 630              		.type	processMessage, %function
 631              	processMessage:
 632              	.LFB72:
 242:main.c        ****         
 243:main.c        ****         // Opcional: Para detenerlo precisamente si se recibe '90' o un valor espec√≠fico.
 244:main.c        ****         // if (angle == 90) { // O cualquier valor que uses para "detener"
 245:main.c        ****         //    PWM_Servo2_SetCompare(SERVO_360_STOP_PULSE_COMPARE_VALUE);
 246:main.c        ****         // } else {
 247:main.c        ****         //    compare_val = map_angle_to_compare_value(angle);
 248:main.c        ****         //    PWM_Servo2_SetCompare(compare_val);
 249:main.c        ****         // }
 250:main.c        **** 
 251:main.c        ****         // Opcional: Debug por UART
 252:main.c        ****         // UART_PutString("Servo 2 (360) a control: ");
 253:main.c        ****         // char temp[5]; sprintf(temp, "%d\r\n", angle); UART_PutString(temp);
 254:main.c        **** 
 255:main.c        ****     }
 256:main.c        ****     // Puedes a√±adir un 'else' aqu√≠ para manejar IDs de servo no v√°lidos si es necesario
 257:main.c        **** }
 258:main.c        **** //------------------------------------------Funci√≥n de serial-------------------------------------
 259:main.c        **** void processMessage(char* message)
 260:main.c        **** {
 633              		.loc 1 260 0
 634              		.cfi_startproc
 635              		@ args = 0, pretend = 0, frame = 24
 636              		@ frame_needed = 0, uses_anonymous_args = 0
 637              	.LVL89:
 638 0000 10B5     		push	{r4, lr}
 639              		.cfi_def_cfa_offset 8
 640              		.cfi_offset 4, -8
 641              		.cfi_offset 14, -4
 642 0002 88B0     		sub	sp, sp, #32
 643              		.cfi_def_cfa_offset 40
 261:main.c        ****     char commandType = message[0];
 644              		.loc 1 261 0
 645 0004 0378     		ldrb	r3, [r0]	@ zero_extendqisi2
 646              	.LVL90:
 262:main.c        ****     int parsedValue1, parsedValue2; // Usados para parsing gen√©rico
 263:main.c        ****     char parsedDirChar;             // Usado para la direcci√≥n del motor
 264:main.c        **** 
 265:main.c        ****     switch(commandType)
 647              		.loc 1 265 0
ARM GAS  C:\Users\57322\AppData\Local\Temp\ccUZ7iU3.s 			page 18


 648 0006 4D2B     		cmp	r3, #77
 649 0008 02D0     		beq	.L60
 650 000a 532B     		cmp	r3, #83
 651 000c 37D0     		beq	.L61
 652 000e 17E1     		b	.L74
 653              	.L60:
 266:main.c        ****     {
 267:main.c        ****         case 'M': // Comando de Motor: M,<direcci√≥n>,<RPM>,<distancia>
 268:main.c        ****             // sscanf ahora busca 3 valores: un char y dos enteros
 269:main.c        ****             if (sscanf(&message[2], "%c,%d,%d", &parsedDirChar, &motorRPM_parsed, &motorDistance_pa
 654              		.loc 1 269 0
 655 0010 8E4B     		ldr	r3, .L76
 656              	.LVL91:
 657 0012 03F10802 		add	r2, r3, #8
 658 0016 0092     		str	r2, [sp]
 659              	.LVL92:
 660 0018 0433     		adds	r3, r3, #4
 661 001a 0DF11F02 		add	r2, sp, #31
 662 001e 8C49     		ldr	r1, .L76+4
 663 0020 0230     		adds	r0, r0, #2
 664              	.LVL93:
 665 0022 FFF7FEFF 		bl	sscanf
 666              	.LVL94:
 667 0026 0328     		cmp	r0, #3
 668 0028 25D1     		bne	.L62
 669              	.LBB7:
 270:main.c        ****             {
 271:main.c        ****                 // Convertir el car√°cter de direcci√≥n a booleano
 272:main.c        ****                 // Asumimos 'R' (Right) es true, 'L' (Left) es false
 273:main.c        ****                 bool dirBool = (parsedDirChar == 'R') ? true : false; 
 670              		.loc 1 273 0
 671 002a 9DF81F00 		ldrb	r0, [sp, #31]	@ zero_extendqisi2
 672              	.LVL95:
 274:main.c        ****                 
 275:main.c        ****                 // --- ¬°Llamada a la nueva funci√≥n de control del motor! ---
 276:main.c        ****                 control_motor(dirBool, (uint16)motorRPM_parsed, (uint16)motorDistance_parsed);
 673              		.loc 1 276 0
 674 002e 874C     		ldr	r4, .L76
 675 0030 2289     		ldrh	r2, [r4, #8]
 676 0032 A188     		ldrh	r1, [r4, #4]
 677 0034 5228     		cmp	r0, #82
 678 0036 14BF     		ite	ne
 679 0038 0020     		movne	r0, #0
 680              	.LVL96:
 681 003a 0120     		moveq	r0, #1
 682 003c FFF7FEFF 		bl	control_motor
 683              	.LVL97:
 277:main.c        **** 
 278:main.c        ****                 // --- Impresi√≥n de depuraci√≥n por UART (opcional) ---
 279:main.c        ****                 UART_PutString("Motor Cmd Recibido: Dir=");
 684              		.loc 1 279 0
 685 0040 8448     		ldr	r0, .L76+8
 686 0042 FFF7FEFF 		bl	UART_PutString
 687              	.LVL98:
 280:main.c        ****                 UART_PutChar(parsedDirChar);
 688              		.loc 1 280 0
 689 0046 9DF81F00 		ldrb	r0, [sp, #31]	@ zero_extendqisi2
ARM GAS  C:\Users\57322\AppData\Local\Temp\ccUZ7iU3.s 			page 19


 690 004a FFF7FEFF 		bl	UART_PutChar
 691              	.LVL99:
 281:main.c        ****                 UART_PutString(", RPM=");
 692              		.loc 1 281 0
 693 004e 8248     		ldr	r0, .L76+12
 694 0050 FFF7FEFF 		bl	UART_PutString
 695              	.LVL100:
 282:main.c        ****                 char tempStrRPM[10];
 283:main.c        ****                 sprintf(tempStrRPM, "%d, Dist=", motorRPM_parsed);
 696              		.loc 1 283 0
 697 0054 6268     		ldr	r2, [r4, #4]
 698 0056 8149     		ldr	r1, .L76+16
 699 0058 02A8     		add	r0, sp, #8
 700 005a FFF7FEFF 		bl	sprintf
 701              	.LVL101:
 284:main.c        ****                 UART_PutString(tempStrRPM);
 702              		.loc 1 284 0
 703 005e 02A8     		add	r0, sp, #8
 704 0060 FFF7FEFF 		bl	UART_PutString
 705              	.LVL102:
 285:main.c        ****                 char tempStrDist[10];
 286:main.c        ****                 sprintf(tempStrDist, "%d\r\n", motorDistance_parsed);
 706              		.loc 1 286 0
 707 0064 A268     		ldr	r2, [r4, #8]
 708 0066 7E49     		ldr	r1, .L76+20
 709 0068 05A8     		add	r0, sp, #20
 710 006a FFF7FEFF 		bl	sprintf
 711              	.LVL103:
 287:main.c        ****                 UART_PutString(tempStrDist);
 712              		.loc 1 287 0
 713 006e 05A8     		add	r0, sp, #20
 714 0070 FFF7FEFF 		bl	UART_PutString
 715              	.LVL104:
 716              	.LBE7:
 717 0074 E7E0     		b	.L58
 718              	.L62:
 288:main.c        ****             }
 289:main.c        ****             else
 290:main.c        ****             {
 291:main.c        ****                 UART_PutString("Error: Comando de motor malformado (esperado M,<dir>,<rpm>,<dist>).
 719              		.loc 1 291 0
 720 0076 7B48     		ldr	r0, .L76+24
 721 0078 FFF7FEFF 		bl	UART_PutString
 722              	.LVL105:
 723 007c E3E0     		b	.L58
 724              	.LVL106:
 725              	.L61:
 292:main.c        ****             }
 293:main.c        ****             break;
 294:main.c        **** 
 295:main.c        ****         case 'S': // Comando de Servo: S,<grados_servo1>,<grados_servo2>
 296:main.c        ****             // (Este caso permanece igual)
 297:main.c        ****             if (sscanf(&message[2], "%d,%d", &servo1Degrees, &servo2Degrees) == 2)
 726              		.loc 1 297 0
 727 007e 734A     		ldr	r2, .L76
 728 0080 02F10C03 		add	r3, r2, #12
 729              	.LVL107:
ARM GAS  C:\Users\57322\AppData\Local\Temp\ccUZ7iU3.s 			page 20


 730 0084 1032     		adds	r2, r2, #16
 731 0086 7849     		ldr	r1, .L76+28
 732 0088 0230     		adds	r0, r0, #2
 733              	.LVL108:
 734 008a FFF7FEFF 		bl	sscanf
 735              	.LVL109:
 736 008e 0228     		cmp	r0, #2
 737 0090 40F0D280 		bne	.L64
 738              	.LBB8:
 298:main.c        ****             {
 299:main.c        ****                 // --- Aqu√≠ ir√≠a tu l√≥gica de control de los servos ---
 300:main.c        ****                 UART_PutString("Servo Cmd Recibido: S1=");
 739              		.loc 1 300 0
 740 0094 7548     		ldr	r0, .L76+32
 741 0096 FFF7FEFF 		bl	UART_PutString
 742              	.LVL110:
 301:main.c        ****                 char tempStr1[10];
 302:main.c        ****                 if(servo1Degrees == 0){
 743              		.loc 1 302 0
 744 009a 6C4B     		ldr	r3, .L76
 745 009c 1B69     		ldr	r3, [r3, #16]
 746 009e D3BB     		cbnz	r3, .L65
 303:main.c        ****                     if(servo2Degrees == 0){
 747              		.loc 1 303 0
 748 00a0 6A4B     		ldr	r3, .L76
 749 00a2 DB68     		ldr	r3, [r3, #12]
 750 00a4 83B9     		cbnz	r3, .L66
 304:main.c        ****                         PWM_Servo1_WriteCompare(1000); // 1 ms
 751              		.loc 1 304 0
 752 00a6 4FF47A70 		mov	r0, #1000
 753 00aa FFF7FEFF 		bl	PWM_Servo1_WriteCompare
 754              	.LVL111:
 305:main.c        ****                         CyDelay(1000);
 755              		.loc 1 305 0
 756 00ae 4FF47A70 		mov	r0, #1000
 757 00b2 FFF7FEFF 		bl	CyDelay
 758              	.LVL112:
 306:main.c        ****                         PWM_Servo2_WriteCompare(1000); // 1 ms
 759              		.loc 1 306 0
 760 00b6 4FF47A70 		mov	r0, #1000
 761 00ba FFF7FEFF 		bl	PWM_Servo2_WriteCompare
 762              	.LVL113:
 307:main.c        ****                         CyDelay(1000);
 763              		.loc 1 307 0
 764 00be 4FF47A70 		mov	r0, #1000
 765 00c2 FFF7FEFF 		bl	CyDelay
 766              	.LVL114:
 767 00c6 9DE0     		b	.L67
 768              	.L66:
 308:main.c        **** 
 309:main.c        **** 
 310:main.c        ****                     }else if(servo2Degrees==90){
 769              		.loc 1 310 0
 770 00c8 5A2B     		cmp	r3, #90
 771 00ca 10D1     		bne	.L68
 311:main.c        ****                         PWM_Servo1_WriteCompare(1000); // 1 ms
 772              		.loc 1 311 0
ARM GAS  C:\Users\57322\AppData\Local\Temp\ccUZ7iU3.s 			page 21


 773 00cc 4FF47A70 		mov	r0, #1000
 774 00d0 FFF7FEFF 		bl	PWM_Servo1_WriteCompare
 775              	.LVL115:
 312:main.c        ****                         CyDelay(1000);
 776              		.loc 1 312 0
 777 00d4 4FF47A70 		mov	r0, #1000
 778 00d8 FFF7FEFF 		bl	CyDelay
 779              	.LVL116:
 313:main.c        ****                         PWM_Servo2_WriteCompare(1500); // 1 ms
 780              		.loc 1 313 0
 781 00dc 40F2DC50 		movw	r0, #1500
 782 00e0 FFF7FEFF 		bl	PWM_Servo2_WriteCompare
 783              	.LVL117:
 314:main.c        ****                         CyDelay(1000);
 784              		.loc 1 314 0
 785 00e4 4FF47A70 		mov	r0, #1000
 786 00e8 FFF7FEFF 		bl	CyDelay
 787              	.LVL118:
 788 00ec 8AE0     		b	.L67
 789              	.L68:
 315:main.c        ****                     }
 316:main.c        ****                     else if(servo2Degrees== 180){
 790              		.loc 1 316 0
 791 00ee B42B     		cmp	r3, #180
 792 00f0 40F08880 		bne	.L67
 317:main.c        ****                         PWM_Servo1_WriteCompare(1000); // 1 ms
 793              		.loc 1 317 0
 794 00f4 4FF47A70 		mov	r0, #1000
 795 00f8 FFF7FEFF 		bl	PWM_Servo1_WriteCompare
 796              	.LVL119:
 318:main.c        ****                         CyDelay(1000);
 797              		.loc 1 318 0
 798 00fc 4FF47A70 		mov	r0, #1000
 799 0100 FFF7FEFF 		bl	CyDelay
 800              	.LVL120:
 319:main.c        ****                         PWM_Servo2_WriteCompare(2000); // 1 ms
 801              		.loc 1 319 0
 802 0104 4FF4FA60 		mov	r0, #2000
 803 0108 FFF7FEFF 		bl	PWM_Servo2_WriteCompare
 804              	.LVL121:
 320:main.c        ****                         CyDelay(1000);
 805              		.loc 1 320 0
 806 010c 4FF47A70 		mov	r0, #1000
 807 0110 FFF7FEFF 		bl	CyDelay
 808              	.LVL122:
 809 0114 76E0     		b	.L67
 810              	.L65:
 321:main.c        ****                     }
 322:main.c        ****                 }else if(servo1Degrees==90){
 811              		.loc 1 322 0
 812 0116 5A2B     		cmp	r3, #90
 813 0118 39D1     		bne	.L69
 323:main.c        ****                     if(servo2Degrees == 0){
 814              		.loc 1 323 0
 815 011a 4C4B     		ldr	r3, .L76
 816 011c DB68     		ldr	r3, [r3, #12]
 817 011e 83B9     		cbnz	r3, .L70
ARM GAS  C:\Users\57322\AppData\Local\Temp\ccUZ7iU3.s 			page 22


 324:main.c        ****                         PWM_Servo1_WriteCompare(1500); // 1 ms
 818              		.loc 1 324 0
 819 0120 40F2DC50 		movw	r0, #1500
 820 0124 FFF7FEFF 		bl	PWM_Servo1_WriteCompare
 821              	.LVL123:
 325:main.c        ****                         CyDelay(1000);
 822              		.loc 1 325 0
 823 0128 4FF47A70 		mov	r0, #1000
 824 012c FFF7FEFF 		bl	CyDelay
 825              	.LVL124:
 326:main.c        ****                         PWM_Servo2_WriteCompare(1000); // 1 ms
 826              		.loc 1 326 0
 827 0130 4FF47A70 		mov	r0, #1000
 828 0134 FFF7FEFF 		bl	PWM_Servo2_WriteCompare
 829              	.LVL125:
 327:main.c        ****                         CyDelay(1000);
 830              		.loc 1 327 0
 831 0138 4FF47A70 		mov	r0, #1000
 832 013c FFF7FEFF 		bl	CyDelay
 833              	.LVL126:
 834 0140 60E0     		b	.L67
 835              	.L70:
 328:main.c        **** 
 329:main.c        **** 
 330:main.c        ****                     }else if(servo2Degrees==90){
 836              		.loc 1 330 0
 837 0142 5A2B     		cmp	r3, #90
 838 0144 10D1     		bne	.L71
 331:main.c        ****                         PWM_Servo1_WriteCompare(1500); // 1 ms
 839              		.loc 1 331 0
 840 0146 40F2DC50 		movw	r0, #1500
 841 014a FFF7FEFF 		bl	PWM_Servo1_WriteCompare
 842              	.LVL127:
 332:main.c        ****                         CyDelay(1000);
 843              		.loc 1 332 0
 844 014e 4FF47A70 		mov	r0, #1000
 845 0152 FFF7FEFF 		bl	CyDelay
 846              	.LVL128:
 333:main.c        ****                         PWM_Servo2_WriteCompare(1500); // 1 ms
 847              		.loc 1 333 0
 848 0156 40F2DC50 		movw	r0, #1500
 849 015a FFF7FEFF 		bl	PWM_Servo2_WriteCompare
 850              	.LVL129:
 334:main.c        ****                         CyDelay(1000);
 851              		.loc 1 334 0
 852 015e 4FF47A70 		mov	r0, #1000
 853 0162 FFF7FEFF 		bl	CyDelay
 854              	.LVL130:
 855 0166 4DE0     		b	.L67
 856              	.L71:
 335:main.c        ****                     }
 336:main.c        ****                     else if(servo2Degrees== 180){
 857              		.loc 1 336 0
 858 0168 B42B     		cmp	r3, #180
 859 016a 4BD1     		bne	.L67
 337:main.c        ****                         PWM_Servo1_WriteCompare(1500); // 1 ms
 860              		.loc 1 337 0
ARM GAS  C:\Users\57322\AppData\Local\Temp\ccUZ7iU3.s 			page 23


 861 016c 40F2DC50 		movw	r0, #1500
 862 0170 FFF7FEFF 		bl	PWM_Servo1_WriteCompare
 863              	.LVL131:
 338:main.c        ****                         CyDelay(1000);
 864              		.loc 1 338 0
 865 0174 4FF47A70 		mov	r0, #1000
 866 0178 FFF7FEFF 		bl	CyDelay
 867              	.LVL132:
 339:main.c        ****                         PWM_Servo2_WriteCompare(2000); // 1 ms
 868              		.loc 1 339 0
 869 017c 4FF4FA60 		mov	r0, #2000
 870 0180 FFF7FEFF 		bl	PWM_Servo2_WriteCompare
 871              	.LVL133:
 340:main.c        ****                         CyDelay(1000);
 872              		.loc 1 340 0
 873 0184 4FF47A70 		mov	r0, #1000
 874 0188 FFF7FEFF 		bl	CyDelay
 875              	.LVL134:
 876 018c 3AE0     		b	.L67
 877              	.L69:
 341:main.c        ****                     }
 342:main.c        ****                 }
 343:main.c        ****                 else if(servo1Degrees== 180){
 878              		.loc 1 343 0
 879 018e B42B     		cmp	r3, #180
 880 0190 38D1     		bne	.L67
 344:main.c        ****                     if(servo2Degrees == 0){
 881              		.loc 1 344 0
 882 0192 2E4B     		ldr	r3, .L76
 883 0194 DB68     		ldr	r3, [r3, #12]
 884 0196 83B9     		cbnz	r3, .L72
 345:main.c        ****                         PWM_Servo1_WriteCompare(2000); // 1 ms
 885              		.loc 1 345 0
 886 0198 4FF4FA60 		mov	r0, #2000
 887 019c FFF7FEFF 		bl	PWM_Servo1_WriteCompare
 888              	.LVL135:
 346:main.c        ****                         CyDelay(1000);
 889              		.loc 1 346 0
 890 01a0 4FF47A70 		mov	r0, #1000
 891 01a4 FFF7FEFF 		bl	CyDelay
 892              	.LVL136:
 347:main.c        ****                         PWM_Servo2_WriteCompare(1000); // 1 ms
 893              		.loc 1 347 0
 894 01a8 4FF47A70 		mov	r0, #1000
 895 01ac FFF7FEFF 		bl	PWM_Servo2_WriteCompare
 896              	.LVL137:
 348:main.c        ****                         CyDelay(1000);
 897              		.loc 1 348 0
 898 01b0 4FF47A70 		mov	r0, #1000
 899 01b4 FFF7FEFF 		bl	CyDelay
 900              	.LVL138:
 901 01b8 24E0     		b	.L67
 902              	.L72:
 349:main.c        **** 
 350:main.c        **** 
 351:main.c        ****                     }else if(servo2Degrees==90){
 903              		.loc 1 351 0
ARM GAS  C:\Users\57322\AppData\Local\Temp\ccUZ7iU3.s 			page 24


 904 01ba 5A2B     		cmp	r3, #90
 905 01bc 10D1     		bne	.L73
 352:main.c        ****                         PWM_Servo1_WriteCompare(2000); // 1 ms
 906              		.loc 1 352 0
 907 01be 4FF4FA60 		mov	r0, #2000
 908 01c2 FFF7FEFF 		bl	PWM_Servo1_WriteCompare
 909              	.LVL139:
 353:main.c        ****                         CyDelay(1000);
 910              		.loc 1 353 0
 911 01c6 4FF47A70 		mov	r0, #1000
 912 01ca FFF7FEFF 		bl	CyDelay
 913              	.LVL140:
 354:main.c        ****                         PWM_Servo2_WriteCompare(1500); // 1 ms
 914              		.loc 1 354 0
 915 01ce 40F2DC50 		movw	r0, #1500
 916 01d2 FFF7FEFF 		bl	PWM_Servo2_WriteCompare
 917              	.LVL141:
 355:main.c        ****                         CyDelay(1000);
 918              		.loc 1 355 0
 919 01d6 4FF47A70 		mov	r0, #1000
 920 01da FFF7FEFF 		bl	CyDelay
 921              	.LVL142:
 922 01de 11E0     		b	.L67
 923              	.L73:
 356:main.c        ****                     }
 357:main.c        ****                     else if(servo2Degrees== 180){
 924              		.loc 1 357 0
 925 01e0 B42B     		cmp	r3, #180
 926 01e2 0FD1     		bne	.L67
 358:main.c        ****                         PWM_Servo1_WriteCompare(4000); // 1 ms
 927              		.loc 1 358 0
 928 01e4 4FF47A60 		mov	r0, #4000
 929 01e8 FFF7FEFF 		bl	PWM_Servo1_WriteCompare
 930              	.LVL143:
 359:main.c        ****                         CyDelay(1000);
 931              		.loc 1 359 0
 932 01ec 4FF47A70 		mov	r0, #1000
 933 01f0 FFF7FEFF 		bl	CyDelay
 934              	.LVL144:
 360:main.c        ****                         PWM_Servo2_WriteCompare(2000); // 1 ms
 935              		.loc 1 360 0
 936 01f4 4FF4FA60 		mov	r0, #2000
 937 01f8 FFF7FEFF 		bl	PWM_Servo2_WriteCompare
 938              	.LVL145:
 361:main.c        ****                         CyDelay(1000);
 939              		.loc 1 361 0
 940 01fc 4FF47A70 		mov	r0, #1000
 941 0200 FFF7FEFF 		bl	CyDelay
 942              	.LVL146:
 943              	.L67:
 362:main.c        ****                     }
 363:main.c        ****                 }
 364:main.c        ****                 sprintf(tempStr1, "%d, S2=", servo1Degrees);
 944              		.loc 1 364 0 discriminator 3
 945 0204 114C     		ldr	r4, .L76
 946 0206 2269     		ldr	r2, [r4, #16]
 947 0208 1949     		ldr	r1, .L76+36
ARM GAS  C:\Users\57322\AppData\Local\Temp\ccUZ7iU3.s 			page 25


 948 020a 02A8     		add	r0, sp, #8
 949 020c FFF7FEFF 		bl	sprintf
 950              	.LVL147:
 365:main.c        ****                 UART_PutString(tempStr1);
 951              		.loc 1 365 0 discriminator 3
 952 0210 02A8     		add	r0, sp, #8
 953 0212 FFF7FEFF 		bl	UART_PutString
 954              	.LVL148:
 366:main.c        ****                 char tempStr2[10];
 367:main.c        ****                 sprintf(tempStr2, "%d\r\n", servo2Degrees);
 955              		.loc 1 367 0 discriminator 3
 956 0216 E268     		ldr	r2, [r4, #12]
 957 0218 1149     		ldr	r1, .L76+20
 958 021a 05A8     		add	r0, sp, #20
 959 021c FFF7FEFF 		bl	sprintf
 960              	.LVL149:
 368:main.c        ****                 UART_PutString(tempStr2);
 961              		.loc 1 368 0 discriminator 3
 962 0220 05A8     		add	r0, sp, #20
 963 0222 FFF7FEFF 		bl	UART_PutString
 964              	.LVL150:
 369:main.c        ****                 set_servo_angle(1, servo1Degrees); // Servo 1 (est√°ndar) a 90 grados
 965              		.loc 1 369 0 discriminator 3
 966 0226 218A     		ldrh	r1, [r4, #16]
 967 0228 0120     		movs	r0, #1
 968 022a FFF7FEFF 		bl	set_servo_angle
 969              	.LVL151:
 370:main.c        ****                 set_servo_angle(2, servo2Degrees); // Servo 2 (360 grados) a su punto de PARADA o i
 970              		.loc 1 370 0 discriminator 3
 971 022e A189     		ldrh	r1, [r4, #12]
 972 0230 0220     		movs	r0, #2
 973 0232 FFF7FEFF 		bl	set_servo_angle
 974              	.LVL152:
 975              	.LBE8:
 976 0236 06E0     		b	.L58
 977              	.L64:
 371:main.c        ****                             // Si 90 en el GUI significa detenerlo, esto lo detendr√°.
 372:main.c        **** 
 373:main.c        ****             }
 374:main.c        ****             else
 375:main.c        ****             {
 376:main.c        ****                 UART_PutString("Error: Comando de servo malformado.\r\n");
 978              		.loc 1 376 0
 979 0238 0E48     		ldr	r0, .L76+40
 980 023a FFF7FEFF 		bl	UART_PutString
 981              	.LVL153:
 982 023e 02E0     		b	.L58
 983              	.LVL154:
 984              	.L74:
 377:main.c        ****             }
 378:main.c        ****             break;
 379:main.c        **** 
 380:main.c        ****         default:
 381:main.c        ****             UART_PutString("Error: Tipo de comando desconocido.\r\n");
 985              		.loc 1 381 0
 986 0240 0D48     		ldr	r0, .L76+44
 987              	.LVL155:
ARM GAS  C:\Users\57322\AppData\Local\Temp\ccUZ7iU3.s 			page 26


 988 0242 FFF7FEFF 		bl	UART_PutString
 989              	.LVL156:
 990              	.L58:
 382:main.c        ****             break;
 383:main.c        ****     }
 384:main.c        **** }
 991              		.loc 1 384 0
 992 0246 08B0     		add	sp, sp, #32
 993              		.cfi_def_cfa_offset 8
 994              		@ sp needed
 995 0248 10BD     		pop	{r4, pc}
 996              	.L77:
 997 024a 00BF     		.align	2
 998              	.L76:
 999 024c 00000000 		.word	.LANCHOR0
 1000 0250 00000000 		.word	.LC0
 1001 0254 0C000000 		.word	.LC1
 1002 0258 28000000 		.word	.LC2
 1003 025c 30000000 		.word	.LC3
 1004 0260 3C000000 		.word	.LC4
 1005 0264 44000000 		.word	.LC5
 1006 0268 8C000000 		.word	.LC6
 1007 026c 94000000 		.word	.LC7
 1008 0270 AC000000 		.word	.LC8
 1009 0274 B4000000 		.word	.LC9
 1010 0278 DC000000 		.word	.LC10
 1011              		.cfi_endproc
 1012              	.LFE72:
 1013              		.size	processMessage, .-processMessage
 1014              		.section	.text.main,"ax",%progbits
 1015              		.align	2
 1016              		.global	main
 1017              		.thumb
 1018              		.thumb_func
 1019              		.type	main, %function
 1020              	main:
 1021              	.LFB73:
 385:main.c        **** 
 386:main.c        **** 
 387:main.c        **** 
 388:main.c        **** 
 389:main.c        **** 
 390:main.c        **** int main(void) {
 1022              		.loc 1 390 0
 1023              		.cfi_startproc
 1024              		@ Volatile: function does not return.
 1025              		@ args = 0, pretend = 0, frame = 0
 1026              		@ frame_needed = 0, uses_anonymous_args = 0
 1027 0000 08B5     		push	{r3, lr}
 1028              		.cfi_def_cfa_offset 8
 1029              		.cfi_offset 3, -8
 1030              		.cfi_offset 14, -4
 391:main.c        ****     
 392:main.c        ****     CyGlobalIntEnable; /* Habilita las interrupciones globales. */
 1031              		.loc 1 392 0
 1032              		.syntax unified
 1033              	@ 392 "main.c" 1
ARM GAS  C:\Users\57322\AppData\Local\Temp\ccUZ7iU3.s 			page 27


 1034 0002 62B6     		CPSIE   i
 1035              	@ 0 "" 2
 393:main.c        **** 
 394:main.c        ****     UART_Start(); // Inicia el componente UART
 1036              		.loc 1 394 0
 1037              		.thumb
 1038              		.syntax unified
 1039 0004 FFF7FEFF 		bl	UART_Start
 1040              	.LVL157:
 395:main.c        ****     UART_SetRxInterruptMode(UART_RX_STS_FIFO_NOTEMPTY); // Configura la interrupci√≥n para FIFO no 
 1041              		.loc 1 395 0
 1042 0008 2020     		movs	r0, #32
 1043 000a FFF7FEFF 		bl	UART_SetRxInterruptMode
 1044              	.LVL158:
 396:main.c        ****     
 397:main.c        ****     // Este nombre 'isrRx' proviene de tu esquem√°tico
 398:main.c        ****     isrRx_StartEx(UART_RX_ISR_Handler); // Inicia y asocia el ISR con el manejador definido
 1045              		.loc 1 398 0
 1046 000e 1548     		ldr	r0, .L82
 1047 0010 FFF7FEFF 		bl	isrRx_StartEx
 1048              	.LVL159:
 399:main.c        ****     PWM_Servo1_Start(); 
 1049              		.loc 1 399 0
 1050 0014 FFF7FEFF 		bl	PWM_Servo1_Start
 1051              	.LVL160:
 400:main.c        ****     PWM_Servo2_Start(); 
 1052              		.loc 1 400 0
 1053 0018 FFF7FEFF 		bl	PWM_Servo2_Start
 1054              	.LVL161:
 401:main.c        ****     UART_PutString("PSoC 5LP Listo. Esperando comandos...\r\n");
 1055              		.loc 1 401 0
 1056 001c 1248     		ldr	r0, .L82+4
 1057 001e FFF7FEFF 		bl	UART_PutString
 1058              	.LVL162:
 402:main.c        ****     I2C_Start();
 1059              		.loc 1 402 0
 1060 0022 FFF7FEFF 		bl	I2C_Start
 1061              	.LVL163:
 403:main.c        ****     LiquidCrystal_I2C_init(Addr, 16, 2, 0);
 1062              		.loc 1 403 0
 1063 0026 0023     		movs	r3, #0
 1064 0028 0222     		movs	r2, #2
 1065 002a 1021     		movs	r1, #16
 1066 002c 0F48     		ldr	r0, .L82+8
 1067 002e 0078     		ldrb	r0, [r0]	@ zero_extendqisi2
 1068 0030 FFF7FEFF 		bl	LiquidCrystal_I2C_init
 1069              	.LVL164:
 404:main.c        ****     begin();
 1070              		.loc 1 404 0
 1071 0034 FFF7FEFF 		bl	begin
 1072              	.LVL165:
 405:main.c        ****     clear();
 1073              		.loc 1 405 0
 1074 0038 FFF7FEFF 		bl	clear
 1075              	.LVL166:
 406:main.c        ****     printLcd(0,1,"Esperando comandos");
 1076              		.loc 1 406 0
ARM GAS  C:\Users\57322\AppData\Local\Temp\ccUZ7iU3.s 			page 28


 1077 003c 0C4A     		ldr	r2, .L82+12
 1078 003e 0121     		movs	r1, #1
 1079 0040 0020     		movs	r0, #0
 1080 0042 FFF7FEFF 		bl	printLcd
 1081              	.LVL167:
 1082              	.L79:
 407:main.c        ****     
 408:main.c        ****    
 409:main.c        ****     for(;;) // Bucle infinito
 410:main.c        ****     {
 411:main.c        ****         /* Coloca tu c√≥digo de aplicaci√≥n principal aqu√≠. */
 412:main.c        ****         if (newMessageFlag)
 1083              		.loc 1 412 0
 1084 0046 0B4B     		ldr	r3, .L82+16
 1085 0048 5B78     		ldrb	r3, [r3, #1]	@ zero_extendqisi2
 1086 004a 13F0FF0F 		tst	r3, #255
 1087 004e FAD0     		beq	.L79
 413:main.c        ****         {
 414:main.c        ****             CyGlobalIntDisable;
 1088              		.loc 1 414 0
 1089              		.syntax unified
 1090              	@ 414 "main.c" 1
 1091 0050 72B6     		CPSID   i
 1092              	@ 0 "" 2
 415:main.c        ****             newMessageFlag = 0;
 1093              		.loc 1 415 0
 1094              		.thumb
 1095              		.syntax unified
 1096 0052 0022     		movs	r2, #0
 1097 0054 074B     		ldr	r3, .L82+16
 1098 0056 5A70     		strb	r2, [r3, #1]
 416:main.c        ****             processMessage(rxBuffer);
 1099              		.loc 1 416 0
 1100 0058 0748     		ldr	r0, .L82+20
 1101 005a FFF7FEFF 		bl	processMessage
 1102              	.LVL168:
 417:main.c        ****             CyGlobalIntEnable;
 1103              		.loc 1 417 0
 1104              		.syntax unified
 1105              	@ 417 "main.c" 1
 1106 005e 62B6     		CPSIE   i
 1107              	@ 0 "" 2
 1108              		.thumb
 1109              		.syntax unified
 1110 0060 F1E7     		b	.L79
 1111              	.L83:
 1112 0062 00BF     		.align	2
 1113              	.L82:
 1114 0064 00000000 		.word	UART_RX_ISR_Handler
 1115 0068 04010000 		.word	.LC11
 1116 006c 00000000 		.word	.LANCHOR1
 1117 0070 2C010000 		.word	.LC12
 1118 0074 00000000 		.word	.LANCHOR0
 1119 0078 00000000 		.word	rxBuffer
 1120              		.cfi_endproc
 1121              	.LFE73:
 1122              		.size	main, .-main
ARM GAS  C:\Users\57322\AppData\Local\Temp\ccUZ7iU3.s 			page 29


 1123              		.comm	lcdLineBuffer,17,4
 1124              		.global	Addr
 1125              		.global	servo2Degrees
 1126              		.global	servo1Degrees
 1127              		.global	motorDistance_parsed
 1128              		.global	motorRPM_parsed
 1129              		.global	motorDirection
 1130              		.global	newMessageFlag
 1131              		.global	rxBufferIdx
 1132              		.comm	rxBuffer,64,4
 1133              		.data
 1134              		.align	2
 1135              		.set	.LANCHOR1,. + 0
 1136              		.type	Addr, %object
 1137              		.size	Addr, 4
 1138              	Addr:
 1139 0000 27000000 		.word	39
 1140              		.type	motorDirection, %object
 1141              		.size	motorDirection, 1
 1142              	motorDirection:
 1143 0004 20       		.byte	32
 1144              		.section	.rodata.str1.4,"aMS",%progbits,1
 1145              		.align	2
 1146              	.LC0:
 1147 0000 25632C25 		.ascii	"%c,%d,%d\000"
 1147      642C2564 
 1147      00
 1148 0009 000000   		.space	3
 1149              	.LC1:
 1150 000c 4D6F746F 		.ascii	"Motor Cmd Recibido: Dir=\000"
 1150      7220436D 
 1150      64205265 
 1150      63696269 
 1150      646F3A20 
 1151 0025 000000   		.space	3
 1152              	.LC2:
 1153 0028 2C205250 		.ascii	", RPM=\000"
 1153      4D3D00
 1154 002f 00       		.space	1
 1155              	.LC3:
 1156 0030 25642C20 		.ascii	"%d, Dist=\000"
 1156      44697374 
 1156      3D00
 1157 003a 0000     		.space	2
 1158              	.LC4:
 1159 003c 25640D0A 		.ascii	"%d\015\012\000"
 1159      00
 1160 0041 000000   		.space	3
 1161              	.LC5:
 1162 0044 4572726F 		.ascii	"Error: Comando de motor malformado (esperado M,<dir"
 1162      723A2043 
 1162      6F6D616E 
 1162      646F2064 
 1162      65206D6F 
 1163 0077 3E2C3C72 		.ascii	">,<rpm>,<dist>).\015\012\000"
 1163      706D3E2C 
 1163      3C646973 
ARM GAS  C:\Users\57322\AppData\Local\Temp\ccUZ7iU3.s 			page 30


 1163      743E292E 
 1163      0D0A00
 1164 008a 0000     		.space	2
 1165              	.LC6:
 1166 008c 25642C25 		.ascii	"%d,%d\000"
 1166      6400
 1167 0092 0000     		.space	2
 1168              	.LC7:
 1169 0094 53657276 		.ascii	"Servo Cmd Recibido: S1=\000"
 1169      6F20436D 
 1169      64205265 
 1169      63696269 
 1169      646F3A20 
 1170              	.LC8:
 1171 00ac 25642C20 		.ascii	"%d, S2=\000"
 1171      53323D00 
 1172              	.LC9:
 1173 00b4 4572726F 		.ascii	"Error: Comando de servo malformado.\015\012\000"
 1173      723A2043 
 1173      6F6D616E 
 1173      646F2064 
 1173      65207365 
 1174 00da 0000     		.space	2
 1175              	.LC10:
 1176 00dc 4572726F 		.ascii	"Error: Tipo de comando desconocido.\015\012\000"
 1176      723A2054 
 1176      69706F20 
 1176      64652063 
 1176      6F6D616E 
 1177 0102 0000     		.space	2
 1178              	.LC11:
 1179 0104 50536F43 		.ascii	"PSoC 5LP Listo. Esperando comandos...\015\012\000"
 1179      20354C50 
 1179      204C6973 
 1179      746F2E20 
 1179      45737065 
 1180              	.LC12:
 1181 012c 45737065 		.ascii	"Esperando comandos\000"
 1181      72616E64 
 1181      6F20636F 
 1181      6D616E64 
 1181      6F7300
 1182              		.bss
 1183              		.align	2
 1184              		.set	.LANCHOR0,. + 0
 1185              		.type	rxBufferIdx, %object
 1186              		.size	rxBufferIdx, 1
 1187              	rxBufferIdx:
 1188 0000 00       		.space	1
 1189              		.type	newMessageFlag, %object
 1190              		.size	newMessageFlag, 1
 1191              	newMessageFlag:
 1192 0001 00       		.space	1
 1193 0002 0000     		.space	2
 1194              		.type	motorRPM_parsed, %object
 1195              		.size	motorRPM_parsed, 4
 1196              	motorRPM_parsed:
ARM GAS  C:\Users\57322\AppData\Local\Temp\ccUZ7iU3.s 			page 31


 1197 0004 00000000 		.space	4
 1198              		.type	motorDistance_parsed, %object
 1199              		.size	motorDistance_parsed, 4
 1200              	motorDistance_parsed:
 1201 0008 00000000 		.space	4
 1202              		.type	servo2Degrees, %object
 1203              		.size	servo2Degrees, 4
 1204              	servo2Degrees:
 1205 000c 00000000 		.space	4
 1206              		.type	servo1Degrees, %object
 1207              		.size	servo1Degrees, 4
 1208              	servo1Degrees:
 1209 0010 00000000 		.space	4
 1210              		.text
 1211              	.Letext0:
 1212              		.file 2 "c:\\program files (x86)\\cypress\\psoc creator\\4.4\\psoc creator\\import\\gnu\\arm\\5.4.
 1213              		.file 3 "c:\\program files (x86)\\cypress\\psoc creator\\4.4\\psoc creator\\import\\gnu\\arm\\5.4.
 1214              		.file 4 "Generated_Source\\PSoC5/cytypes.h"
 1215              		.file 5 "Generated_Source\\PSoC5/core_cm3.h"
 1216              		.file 6 "Generated_Source\\PSoC5/UART.h"
 1217              		.file 7 "Generated_Source\\PSoC5/CyLib.h"
 1218              		.file 8 "Generated_Source\\PSoC5/STEP.h"
 1219              		.file 9 "Generated_Source\\PSoC5/DIR.h"
 1220              		.file 10 "LiquidCrystal_I2C.h"
 1221              		.file 11 "Generated_Source\\PSoC5/PWM_Servo1.h"
 1222              		.file 12 "Generated_Source\\PSoC5/PWM_Servo2.h"
 1223              		.file 13 "c:\\program files (x86)\\cypress\\psoc creator\\4.4\\psoc creator\\import\\gnu\\arm\\5.4
 1224              		.file 14 "Generated_Source\\PSoC5/isrRx.h"
 1225              		.file 15 "Generated_Source\\PSoC5/I2C.h"